target datalayout = "e-m:e-p270:32:32-p271:32:32-p272:64:64-i64:64-i128:128-f80:128-n8:16:32:64-S128"
target triple = "x86_64-pc-linux-gnu"

%"class.casadi::Sparsity" = type { %"class.casadi::SharedObject" }
%"class.casadi::SharedObject" = type { ptr }

; Function Attrs: mustprogress uwtable
define noundef ptr @_ZNK6casadi8SparsityptEv(ptr noundef nonnull align 8 dereferenceable(8) %0) #4 align 2 {
  %2 = alloca ptr, align 8
  store ptr %0, ptr %2, align 8
  %3 = load ptr, ptr %2, align 8
  %4 = call noundef ptr @_ZNK6casadi12SharedObjectptEv(ptr noundef nonnull align 8 dereferenceable(8) %3)
  ret ptr %4
}

; Function Attrs: mustprogress nounwind uwtable
define linkonce_odr hidden void @_ZN6casadi8SparsityD2Ev(ptr noundef nonnull align 8 dereferenceable(8) %0) unnamed_addr #5 comdat align 2 {
  %2 = alloca ptr, align 8
  store ptr %0, ptr %2, align 8
  %3 = load ptr, ptr %2, align 8
  call void @_ZN6casadi12SharedObjectD2Ev(ptr noundef nonnull align 8 dereferenceable(8) %3) #3
  ret void
}

; Function Attrs: mustprogress uwtable
define void @_ZNK6casadi8Sparsity1TEv(ptr dead_on_unwind noalias writable sret(%"class.casadi::Sparsity") align 8 %0, ptr noundef nonnull align 8 dereferenceable(8) %1) #4 align 2 {
  %3 = alloca ptr, align 8
  %4 = alloca ptr, align 8
  store ptr %0, ptr %3, align 8
  store ptr %1, ptr %4, align 8
  %5 = load ptr, ptr %4, align 8
  %6 = call noundef ptr @_ZNK6casadi8SparsityptEv(ptr noundef nonnull align 8 dereferenceable(8) %5)
  call void @_ZNK6casadi16SparsityInternal1TEv(ptr dead_on_unwind writable sret(%"class.casadi::Sparsity") align 8 %0, ptr noundef nonnull align 8 dereferenceable(56) %6)
  ret void
}

; Function Attrs: mustprogress uwtable
define void @_ZNK6casadi8Sparsity7get_crsERSt6vectorIxSaIxEES4_(ptr noundef nonnull align 8 dereferenceable(8) %0, ptr noundef nonnull align 8 dereferenceable(24) %1, ptr noundef nonnull align 8 dereferenceable(24) %2) #4 align 2 personality ptr @__gxx_personality_v0 {
  %4 = alloca ptr, align 8
  %5 = alloca ptr, align 8
  %6 = alloca ptr, align 8
  %7 = alloca %"class.casadi::Sparsity", align 8
  %8 = alloca ptr, align 8
  %9 = alloca i32, align 4
  store ptr %0, ptr %4, align 8
  store ptr %1, ptr %5, align 8
  store ptr %2, ptr %6, align 8
  %10 = load ptr, ptr %4, align 8
  call void @_ZNK6casadi8Sparsity1TEv(ptr dead_on_unwind writable sret(%"class.casadi::Sparsity") align 8 %7, ptr noundef nonnull align 8 dereferenceable(8) %10)
  %11 = load ptr, ptr %5, align 8
  %12 = load ptr, ptr %6, align 8
  invoke void @_ZNK6casadi8Sparsity7get_ccsERSt6vectorIxSaIxEES4_(ptr noundef nonnull align 8 dereferenceable(8) %7, ptr noundef nonnull align 8 dereferenceable(24) %11, ptr noundef nonnull align 8 dereferenceable(24) %12)
          to label %13 unwind label %14

13:                                               ; preds = %3
  call void @_ZN6casadi8SparsityD2Ev(ptr noundef nonnull align 8 dereferenceable(8) %7) #3
  ret void

14:                                               ; preds = %3
  %15 = landingpad { ptr, i32 }
          cleanup
  %16 = extractvalue { ptr, i32 } %15, 0
  store ptr %16, ptr %8, align 8
  %17 = extractvalue { ptr, i32 } %15, 1
  store i32 %17, ptr %9, align 4
  call void @_ZN6casadi8SparsityD2Ev(ptr noundef nonnull align 8 dereferenceable(8) %7) #3
  br label %18

18:                                               ; preds = %14
  %19 = load ptr, ptr %8, align 8
  %20 = load i32, ptr %9, align 4
  %21 = insertvalue { ptr, i32 } poison, ptr %19, 0
  %22 = insertvalue { ptr, i32 } %21, i32 %20, 1
  resume { ptr, i32 } %22
}