; Function Attrs: mustprogress uwtable
define void @_ZNK6casadi8Sparsity7get_crsERSt6vectorIxSaIxEES4_(ptr noundef nonnull align 8 dereferenceable(8) %0, ptr nocapture noundef nonnull align 8 dereferenceable(24) %1, ptr nocapture noundef nonnull align 8 dereferenceable(24) %2) local_unnamed_addr #3 align 2 personality ptr @__gxx_personality_v0 {
  %4 = alloca %"class.casadi::Sparsity", align 8
  %5 = tail call noundef ptr @_ZNK6casadi12SharedObjectptEv(ptr noundef nonnull align 8 dereferenceable(8) %0), !noalias !75
  call void @_ZNK6casadi16SparsityInternal1TEv(ptr dead_on_unwind nonnull writable sret(%"class.casadi::Sparsity") align 8 %4, ptr noundef nonnull align 8 dereferenceable(56) %5)
  invoke void @_ZNK6casadi8Sparsity7get_ccsERSt6vectorIxSaIxEES4_(ptr noundef nonnull align 8 dereferenceable(8) %4, ptr noundef nonnull align 8 dereferenceable(24) %1, ptr noundef nonnull align 8 dereferenceable(24) %2)
          to label %6 unwind label %7

6:                                                ; preds = %3
  call void @_ZN6casadi12SharedObjectD2Ev(ptr noundef nonnull align 8 dereferenceable(8) %4) #24
  ret void

7:                                                ; preds = %3
  %8 = landingpad { ptr, i32 }
          cleanup
  call void @_ZN6casadi12SharedObjectD2Ev(ptr noundef nonnull align 8 dereferenceable(8) %4) #24
  resume { ptr, i32 } %8
}